target datalayout = "e-m:e-p270:32:32-p271:32:32-p272:64:64-i64:64-i128:128-f80:128-n8:16:32:64-S128"
target triple = "x86_64-pc-linux-gnu"

%struct.strvec = type { ptr, i64, i64 }
%struct.child_process = type { %struct.strvec, %struct.strvec, i32, i32, i64, ptr, ptr, i32, i32, i32, ptr, i16, ptr }

; Function Attrs: nounwind uwtable
define dso_local i32 @run_auto_maintenance(i32 noundef %0) #0 {
  %2 = alloca i32, align 4
  %3 = alloca i32, align 4
  %4 = alloca %struct.child_process, align 8
  %5 = alloca i32, align 4
  store i32 %0, ptr %3, align 4, !tbaa !16
  call void @llvm.lifetime.start.p0(i64 120, ptr %4) #13
  call void @llvm.memcpy.p0.p0.i64(ptr align 8 %4, ptr align 8 @__const.run_auto_maintenance.maint, i64 120, i1 false)
  %6 = load i32, ptr %3, align 4, !tbaa !16
  %7 = call i32 @prepare_auto_maintenance(i32 noundef %6, ptr noundef %4)
  %8 = icmp ne i32 %7, 0
  br i1 %8, label %10, label %9

9:                                                ; preds = %1
  store i32 0, ptr %2, align 4
  store i32 1, ptr %5, align 4
  br label %12

10:                                               ; preds = %1
  %11 = call i32 @run_command(ptr noundef %4)
  store i32 %11, ptr %2, align 4
  store i32 1, ptr %5, align 4
  br label %12

12:                                               ; preds = %10, %9
  call void @llvm.lifetime.end.p0(i64 120, ptr %4) #13
  %13 = load i32, ptr %2, align 4
  ret i32 %13
}