; Function Attrs: nounwind uwtable
define dso_local range(i32 -1, 256) i32 @run_auto_maintenance(i32 noundef %0) local_unnamed_addr #3 {
  %2 = alloca %struct.child_process, align 8
  call void @llvm.lifetime.start.p0(i64 120, ptr nonnull %2) #21
  call void @llvm.memcpy.p0.p0.i64(ptr noundef nonnull align 8 dereferenceable(120) %2, ptr noundef nonnull align 8 dereferenceable(120) @__const.run_auto_maintenance.maint, i64 120, i1 false)
  %3 = call i32 @prepare_auto_maintenance(i32 noundef %0, ptr noundef nonnull %2)
  %.not = icmp eq i32 %3, 0
  br i1 %.not, label %6, label %4

4:                                                ; preds = %1
  %5 = call i32 @run_command(ptr noundef nonnull %2)
  br label %6

6:                                                ; preds = %1, %4
  %.0 = phi i32 [ %5, %4 ], [ 0, %1 ]
  call void @llvm.lifetime.end.p0(i64 120, ptr nonnull %2) #21
  ret i32 %.0
}